target datalayout = "e-m:e-p270:32:32-p271:32:32-p272:64:64-i64:64-i128:128-f80:128-n8:16:32:64-S128"
target triple = "x86_64-pc-linux-gnu"

%struct.dt_pthread_mutex_t = type { %union.pthread_mutex_t }
%union.pthread_mutex_t = type { %struct.__pthread_mutex_s }
%struct.__pthread_mutex_s = type { i32, i32, i32, i32, i32, i16, i16, %struct.__pthread_internal_list }
%struct.__pthread_internal_list = type { ptr, ptr }
%struct._GSList = type { ptr, ptr }
%struct.timeval = type { i64, i64 }

@pending_images = internal global ptr null, align 8
@lock_initialized = internal global i32 0, align 4
@pending_mutex = internal global %struct.dt_pthread_mutex_t zeroinitializer, align 8

; Function Attrs: inlinehint nounwind uwtable
define internal i32 @dt_pthread_mutex_unlock(ptr noundef %0) #3 {
  %2 = alloca ptr, align 8
  store ptr %0, ptr %2, align 8, !tbaa !63
  %3 = load ptr, ptr %2, align 8, !tbaa !63
  %4 = getelementptr inbounds nuw %struct.dt_pthread_mutex_t, ptr %3, i32 0, i32 0
  %5 = call i32 @pthread_mutex_unlock(ptr noundef %4) #6
  ret i32 %5
}

; Function Attrs: inlinehint nounwind uwtable
define internal i32 @dt_pthread_mutex_lock(ptr noundef %0) #3 {
  %2 = alloca ptr, align 8
  store ptr %0, ptr %2, align 8, !tbaa !63
  %3 = load ptr, ptr %2, align 8, !tbaa !63
  %4 = getelementptr inbounds nuw %struct.dt_pthread_mutex_t, ptr %3, i32 0, i32 0
  %5 = call i32 @pthread_mutex_lock(ptr noundef %4) #6
  ret i32 %5
}

; Function Attrs: inlinehint nounwind uwtable
define internal i32 @dt_pthread_mutex_init(ptr noundef %0, ptr noundef %1) #3 {
  %3 = alloca ptr, align 8
  %4 = alloca ptr, align 8
  store ptr %0, ptr %3, align 8, !tbaa !63
  store ptr %1, ptr %4, align 8, !tbaa !65
  %5 = load ptr, ptr %3, align 8, !tbaa !63
  %6 = getelementptr inbounds nuw %struct.dt_pthread_mutex_t, ptr %5, i32 0, i32 0
  %7 = load ptr, ptr %4, align 8, !tbaa !65
  %8 = call i32 @pthread_mutex_init(ptr noundef %6, ptr noundef %7) #6
  ret i32 %8
}

; Function Attrs: nounwind uwtable
define internal void @_unlock_pending_queue() #0 {
  %1 = load i32, ptr @lock_initialized, align 4, !tbaa !6
  %2 = icmp ne i32 %1, 0
  br i1 %2, label %3, label %5

3:                                                ; preds = %0
  %4 = call i32 @dt_pthread_mutex_unlock(ptr noundef @pending_mutex)
  br label %5

5:                                                ; preds = %3, %0
  ret void
}

; Function Attrs: nounwind uwtable
define internal void @_lock_pending_queue() #0 {
  %1 = load i32, ptr @lock_initialized, align 4, !tbaa !6
  %2 = icmp ne i32 %1, 0
  br i1 %2, label %5, label %3

3:                                                ; preds = %0
  %4 = call i32 @dt_pthread_mutex_init(ptr noundef @pending_mutex, ptr noundef null)
  store i32 1, ptr @lock_initialized, align 4, !tbaa !6
  br label %5

5:                                                ; preds = %3, %0
  %6 = call i32 @dt_pthread_mutex_lock(ptr noundef @pending_mutex)
  ret void
}

; Function Attrs: inlinehint nounwind uwtable
define internal double @dt_get_wtime() #3 {
  %1 = alloca %struct.timeval, align 8
  call void @llvm.lifetime.start.p0(i64 16, ptr %1) #6
  %2 = call i32 @gettimeofday(ptr noundef %1, ptr noundef null) #6
  %3 = getelementptr inbounds nuw %struct.timeval, ptr %1, i32 0, i32 0
  %4 = load i64, ptr %3, align 8, !tbaa !66
  %5 = sub nsw i64 %4, 1290608000
  %6 = sitofp i64 %5 to double
  %7 = getelementptr inbounds nuw %struct.timeval, ptr %1, i32 0, i32 1
  %8 = load i64, ptr %7, align 8, !tbaa !68
  %9 = sitofp i64 %8 to double
  %10 = fmul reassoc nsz arcp contract afn double 0x3EB0C6F7A0B5ED8D, %9
  %11 = fadd reassoc nsz arcp contract afn double %6, %10
  call void @llvm.lifetime.end.p0(i64 16, ptr %1) #6
  ret double %11
}

; Function Attrs: nounwind uwtable
define internal i32 @_control_write_sidecars_job_run(ptr noundef %0) #0 {
  %2 = alloca ptr, align 8
  %3 = alloca ptr, align 8
  %4 = alloca ptr, align 8
  %5 = alloca double, align 8
  %6 = alloca ptr, align 8
  %7 = alloca double, align 8
  %8 = alloca ptr, align 8
  %9 = alloca ptr, align 8
  %10 = alloca i32, align 4
  %11 = alloca i32, align 4
  store ptr %0, ptr %2, align 8, !tbaa !20
  call void @llvm.lifetime.start.p0(i64 8, ptr %3) #6
  store ptr null, ptr %3, align 8, !tbaa !10
  call void @llvm.lifetime.start.p0(i64 8, ptr %4) #6
  %12 = call ptr @g_hash_table_new(ptr noundef @g_direct_hash, ptr noundef @g_direct_equal)
  store ptr %12, ptr %4, align 8, !tbaa !59
  call void @llvm.lifetime.start.p0(i64 8, ptr %5) #6
  store double 0.000000e+00, ptr %5, align 8, !tbaa !61
  br label %13

13:                                               ; preds = %122, %1
  %14 = load ptr, ptr %3, align 8, !tbaa !10
  %15 = icmp ne ptr %14, null
  br i1 %15, label %25, label %16

16:                                               ; preds = %13
  %17 = call i32 (...) @dt_control_running()
  %18 = icmp ne i32 %17, 0
  br i1 %18, label %19, label %23

19:                                               ; preds = %16
  %20 = load ptr, ptr %2, align 8, !tbaa !20
  %21 = call i32 @dt_control_job_get_state(ptr noundef %20)
  %22 = icmp ne i32 %21, 4
  br label %23

23:                                               ; preds = %19, %16
  %24 = phi i1 [ false, %16 ], [ %22, %19 ]
  br label %25

25:                                               ; preds = %23, %13
  %26 = phi i1 [ true, %13 ], [ %24, %23 ]
  br i1 %26, label %27, label %123

27:                                               ; preds = %25
  call void @llvm.lifetime.start.p0(i64 8, ptr %6) #6
  store ptr null, ptr %6, align 8, !tbaa !10
  call void @llvm.lifetime.start.p0(i64 8, ptr %7) #6
  %28 = call reassoc nsz arcp contract afn double @dt_get_wtime()
  store double %28, ptr %7, align 8, !tbaa !61
  %29 = load double, ptr %7, align 8, !tbaa !61
  %30 = load double, ptr %5, align 8, !tbaa !61
  %31 = fadd reassoc nsz arcp contract afn double %30, 2.500000e-01
  %32 = fcmp reassoc nsz arcp contract afn ogt double %29, %31
  br i1 %32, label %33, label %88

33:                                               ; preds = %27
  %34 = load double, ptr %7, align 8, !tbaa !61
  store double %34, ptr %5, align 8, !tbaa !61
  call void @_lock_pending_queue()
  %35 = load ptr, ptr @pending_images, align 8, !tbaa !10
  store ptr %35, ptr %6, align 8, !tbaa !10
  store ptr null, ptr @pending_images, align 8, !tbaa !10
  call void @_unlock_pending_queue()
  %36 = load ptr, ptr %6, align 8, !tbaa !10
  %37 = icmp ne ptr %36, null
  br i1 %37, label %38, label %87

38:                                               ; preds = %33
  call void @llvm.lifetime.start.p0(i64 8, ptr %8) #6
  store ptr null, ptr %8, align 8, !tbaa !10
  call void @llvm.lifetime.start.p0(i64 8, ptr %9) #6
  %39 = load ptr, ptr %6, align 8, !tbaa !10
  store ptr %39, ptr %9, align 8, !tbaa !10
  br label %40

40:                                               ; preds = %80, %38
  %41 = load ptr, ptr %9, align 8, !tbaa !10
  %42 = icmp ne ptr %41, null
  br i1 %42, label %44, label %43

43:                                               ; preds = %40
  call void @llvm.lifetime.end.p0(i64 8, ptr %9) #6
  br label %82

44:                                               ; preds = %40
  %45 = load ptr, ptr %4, align 8, !tbaa !59
  %46 = load ptr, ptr %9, align 8, !tbaa !10
  %47 = getelementptr inbounds nuw %struct._GSList, ptr %46, i32 0, i32 0
  %48 = load ptr, ptr %47, align 8, !tbaa !62
  %49 = ptrtoint ptr %48 to i64
  %50 = inttoptr i64 %49 to ptr
  %51 = call i32 @g_hash_table_contains(ptr noundef %45, ptr noundef %50)
  %52 = icmp ne i32 %51, 0
  br i1 %52, label %71, label %53

53:                                               ; preds = %44
  %54 = load ptr, ptr %8, align 8, !tbaa !10
  %55 = load ptr, ptr %9, align 8, !tbaa !10
  %56 = getelementptr inbounds nuw %struct._GSList, ptr %55, i32 0, i32 0
  %57 = load ptr, ptr %56, align 8, !tbaa !62
  %58 = call ptr @g_slist_prepend(ptr noundef %54, ptr noundef %57)
  store ptr %58, ptr %8, align 8, !tbaa !10
  %59 = load ptr, ptr %4, align 8, !tbaa !59
  %60 = load ptr, ptr %9, align 8, !tbaa !10
  %61 = getelementptr inbounds nuw %struct._GSList, ptr %60, i32 0, i32 0
  %62 = load ptr, ptr %61, align 8, !tbaa !62
  %63 = ptrtoint ptr %62 to i64
  %64 = inttoptr i64 %63 to ptr
  %65 = load ptr, ptr %9, align 8, !tbaa !10
  %66 = getelementptr inbounds nuw %struct._GSList, ptr %65, i32 0, i32 0
  %67 = load ptr, ptr %66, align 8, !tbaa !62
  %68 = ptrtoint ptr %67 to i64
  %69 = inttoptr i64 %68 to ptr
  %70 = call i32 @g_hash_table_insert(ptr noundef %59, ptr noundef %64, ptr noundef %69)
  br label %71

71:                                               ; preds = %53, %44
  br label %72

72:                                               ; preds = %71
  %73 = load ptr, ptr %9, align 8, !tbaa !10
  %74 = icmp ne ptr %73, null
  br i1 %74, label %75, label %79

75:                                               ; preds = %72
  %76 = load ptr, ptr %9, align 8, !tbaa !10
  %77 = getelementptr inbounds nuw %struct._GSList, ptr %76, i32 0, i32 1
  %78 = load ptr, ptr %77, align 8, !tbaa !13
  br label %80

79:                                               ; preds = %72
  br label %80

80:                                               ; preds = %79, %75
  %81 = phi ptr [ %78, %75 ], [ null, %79 ]
  store ptr %81, ptr %9, align 8, !tbaa !10
  br label %40

82:                                               ; preds = %43
  %83 = load ptr, ptr %3, align 8, !tbaa !10
  %84 = load ptr, ptr %8, align 8, !tbaa !10
  %85 = call ptr @g_slist_concat(ptr noundef %83, ptr noundef %84)
  store ptr %85, ptr %3, align 8, !tbaa !10
  %86 = load ptr, ptr %6, align 8, !tbaa !10
  call void @g_slist_free(ptr noundef %86)
  call void @llvm.lifetime.end.p0(i64 8, ptr %8) #6
  br label %87

87:                                               ; preds = %82, %33
  br label %88

88:                                               ; preds = %87, %27
  call void @llvm.lifetime.start.p0(i64 4, ptr %10) #6
  store i32 0, ptr %10, align 4, !tbaa !6
  br label %89

89:                                               ; preds = %114, %88
  %90 = load ptr, ptr %3, align 8, !tbaa !10
  %91 = icmp ne ptr %90, null
  br i1 %91, label %92, label %95

92:                                               ; preds = %89
  %93 = load i32, ptr %10, align 4, !tbaa !6
  %94 = icmp slt i32 %93, 3
  br label %95

95:                                               ; preds = %92, %89
  %96 = phi i1 [ false, %89 ], [ %94, %92 ]
  br i1 %96, label %98, label %97

97:                                               ; preds = %95
  call void @llvm.lifetime.end.p0(i64 4, ptr %10) #6
  br label %117

98:                                               ; preds = %95
  call void @llvm.lifetime.start.p0(i64 4, ptr %11) #6
  %99 = load ptr, ptr %3, align 8, !tbaa !10
  %100 = getelementptr inbounds nuw %struct._GSList, ptr %99, i32 0, i32 0
  %101 = load ptr, ptr %100, align 8, !tbaa !62
  %102 = ptrtoint ptr %101 to i64
  %103 = trunc i64 %102 to i32
  store i32 %103, ptr %11, align 4, !tbaa !6
  %104 = load i32, ptr %11, align 4, !tbaa !6
  %105 = call i32 @dt_image_write_sidecar_file(i32 noundef %104)
  %106 = load ptr, ptr %4, align 8, !tbaa !59
  %107 = load i32, ptr %11, align 4, !tbaa !6
  %108 = sext i32 %107 to i64
  %109 = inttoptr i64 %108 to ptr
  %110 = call i32 @g_hash_table_remove(ptr noundef %106, ptr noundef %109)
  %111 = load ptr, ptr %3, align 8, !tbaa !10
  %112 = load ptr, ptr %3, align 8, !tbaa !10
  %113 = call ptr @g_slist_delete_link(ptr noundef %111, ptr noundef %112)
  store ptr %113, ptr %3, align 8, !tbaa !10
  call void @llvm.lifetime.end.p0(i64 4, ptr %11) #6
  br label %114

114:                                              ; preds = %98
  %115 = load i32, ptr %10, align 4, !tbaa !6
  %116 = add nsw i32 %115, 1
  store i32 %116, ptr %10, align 4, !tbaa !6
  br label %89

117:                                              ; preds = %97
  %118 = load ptr, ptr %3, align 8, !tbaa !10
  %119 = icmp ne ptr %118, null
  br i1 %119, label %120, label %121

120:                                              ; preds = %117
  call void @g_usleep(i64 noundef 10000)
  br label %122

121:                                              ; preds = %117
  call void @g_usleep(i64 noundef 1000000)
  br label %122

122:                                              ; preds = %121, %120
  call void @llvm.lifetime.end.p0(i64 8, ptr %7) #6
  call void @llvm.lifetime.end.p0(i64 8, ptr %6) #6
  br label %13

123:                                              ; preds = %25
  %124 = load ptr, ptr %4, align 8, !tbaa !59
  call void @g_hash_table_destroy(ptr noundef %124)
  call void @llvm.lifetime.end.p0(i64 8, ptr %5) #6
  call void @llvm.lifetime.end.p0(i64 8, ptr %4) #6
  call void @llvm.lifetime.end.p0(i64 8, ptr %3) #6
  ret i32 0
}