; Function Attrs: nounwind uwtable
define internal noundef i32 @_control_write_sidecars_job_run(ptr noundef %0) #0 {
  %2 = alloca %struct.timeval, align 8
  %3 = tail call ptr @g_hash_table_new(ptr noundef nonnull @g_direct_hash, ptr noundef nonnull @g_direct_equal) #6
  %4 = getelementptr inbounds nuw i8, ptr %2, i64 8
  br label %5

5:                                                ; preds = %._crit_edge.thread, %1
  %.036 = phi nsz double [ 0.000000e+00, %1 ], [ %.137, %._crit_edge.thread ]
  %.0 = phi ptr [ null, %1 ], [ %.2.lcssa56, %._crit_edge.thread ]
  %.not = icmp eq ptr %.0, null
  br i1 %.not, label %6, label %.critedge

6:                                                ; preds = %5
  %7 = tail call i32 (...) @dt_control_running() #6
  %.not40 = icmp eq i32 %7, 0
  br i1 %.not40, label %.critedge2, label %8

8:                                                ; preds = %6
  %9 = tail call i32 @dt_control_job_get_state(ptr noundef %0) #6
  %.not41 = icmp eq i32 %9, 4
  br i1 %.not41, label %.critedge2, label %.critedge

.critedge:                                        ; preds = %5, %8
  call void @llvm.lifetime.start.p0(i64 16, ptr nonnull %2) #6
  %10 = call i32 @gettimeofday(ptr noundef nonnull %2, ptr noundef null) #6
  %11 = load i64, ptr %2, align 8, !tbaa !55
  %12 = add nsw i64 %11, -1290608000
  %13 = sitofp i64 %12 to double
  %14 = load i64, ptr %4, align 8, !tbaa !57
  %15 = sitofp i64 %14 to double
  %16 = fmul reassoc nsz arcp contract afn double %15, 0x3EB0C6F7A0B5ED8D
  %17 = fadd reassoc nsz arcp contract afn double %16, %13
  call void @llvm.lifetime.end.p0(i64 16, ptr nonnull %2) #6
  %18 = fadd reassoc nsz arcp contract afn double %.036, 2.500000e-01
  %19 = fcmp reassoc nsz arcp contract afn ogt double %17, %18
  br i1 %19, label %20, label %39

20:                                               ; preds = %.critedge
  %.b.i = load i1, ptr @lock_initialized, align 4
  br i1 %.b.i, label %_lock_pending_queue.exit, label %21

21:                                               ; preds = %20
  %22 = tail call i32 @pthread_mutex_init(ptr noundef nonnull @pending_mutex, ptr noundef null) #6
  store i1 true, ptr @lock_initialized, align 4
  br label %_lock_pending_queue.exit

_lock_pending_queue.exit:                         ; preds = %20, %21
  %23 = tail call i32 @pthread_mutex_lock(ptr noundef nonnull @pending_mutex) #6
  %24 = load ptr, ptr @pending_images, align 8, !tbaa !6
  store ptr null, ptr @pending_images, align 8, !tbaa !6
  %.b.i45 = load i1, ptr @lock_initialized, align 4
  br i1 %.b.i45, label %25, label %_unlock_pending_queue.exit

25:                                               ; preds = %_lock_pending_queue.exit
  %26 = tail call i32 @pthread_mutex_unlock(ptr noundef nonnull @pending_mutex) #6
  br label %_unlock_pending_queue.exit

_unlock_pending_queue.exit:                       ; preds = %_lock_pending_queue.exit, %25
  %.not42 = icmp eq ptr %24, null
  br i1 %.not42, label %39, label %.preheader

27:                                               ; preds = %36
  %28 = tail call ptr @g_slist_concat(ptr noundef %.0, ptr noundef %.135) #6
  tail call void @g_slist_free(ptr noundef nonnull %24) #6
  br label %39

.preheader:                                       ; preds = %_unlock_pending_queue.exit, %36
  %.03347 = phi ptr [ %38, %36 ], [ %24, %_unlock_pending_queue.exit ]
  %.03446 = phi ptr [ %.135, %36 ], [ null, %_unlock_pending_queue.exit ]
  %29 = load ptr, ptr %.03347, align 8, !tbaa !58
  %30 = tail call i32 @g_hash_table_contains(ptr noundef %3, ptr noundef %29) #6
  %.not44 = icmp eq i32 %30, 0
  br i1 %.not44, label %31, label %36

31:                                               ; preds = %.preheader
  %32 = load ptr, ptr %.03347, align 8, !tbaa !58
  %33 = tail call ptr @g_slist_prepend(ptr noundef %.03446, ptr noundef %32) #6
  %34 = load ptr, ptr %.03347, align 8, !tbaa !58
  %35 = tail call i32 @g_hash_table_insert(ptr noundef %3, ptr noundef %34, ptr noundef %34) #6
  br label %36

36:                                               ; preds = %.preheader, %31
  %.135 = phi ptr [ %.03446, %.preheader ], [ %33, %31 ]
  %37 = getelementptr inbounds nuw i8, ptr %.03347, i64 8
  %38 = load ptr, ptr %37, align 8, !tbaa !11
  %.not43 = icmp eq ptr %38, null
  br i1 %.not43, label %27, label %.preheader

39:                                               ; preds = %_unlock_pending_queue.exit, %27, %.critedge
  %.137 = phi nsz double [ %17, %27 ], [ %17, %_unlock_pending_queue.exit ], [ %.036, %.critedge ]
  %.1 = phi ptr [ %28, %27 ], [ %.0, %_unlock_pending_queue.exit ], [ %.0, %.critedge ]
  %.not51 = icmp eq ptr %.1, null
  br i1 %.not51, label %._crit_edge.thread, label %.lr.ph

._crit_edge:                                      ; preds = %.lr.ph
  %spec.select = select i1 %49, i64 10000, i64 1000000
  br label %._crit_edge.thread

.lr.ph:                                           ; preds = %39, %.lr.ph
  %.249 = phi ptr [ %47, %.lr.ph ], [ %.1, %39 ]
  %.03248 = phi i32 [ %48, %.lr.ph ], [ 0, %39 ]
  %40 = load ptr, ptr %.249, align 8, !tbaa !58
  %41 = ptrtoint ptr %40 to i64
  %42 = trunc i64 %41 to i32
  %43 = tail call i32 @dt_image_write_sidecar_file(i32 noundef %42) #6
  %sext = shl i64 %41, 32
  %44 = ashr exact i64 %sext, 32
  %45 = inttoptr i64 %44 to ptr
  %46 = tail call i32 @g_hash_table_remove(ptr noundef %3, ptr noundef %45) #6
  %47 = tail call ptr @g_slist_delete_link(ptr noundef nonnull %.249, ptr noundef nonnull %.249) #6
  %48 = add nuw nsw i32 %.03248, 1
  %49 = icmp ne ptr %47, null
  %50 = icmp samesign ult i32 %.03248, 2
  %51 = select i1 %49, i1 %50, i1 false
  br i1 %51, label %.lr.ph, label %._crit_edge

._crit_edge.thread:                               ; preds = %._crit_edge, %39
  %.sink = phi i64 [ 1000000, %39 ], [ %spec.select, %._crit_edge ]
  %.2.lcssa56 = phi ptr [ null, %39 ], [ %47, %._crit_edge ]
  tail call void @g_usleep(i64 noundef %.sink) #6
  br label %5

.critedge2:                                       ; preds = %6, %8
  tail call void @g_hash_table_destroy(ptr noundef %3) #6
  ret i32 0
}